; Function Attrs: null_pointer_is_valid sspstrong uwtable
define internal fastcc noundef zeroext i1 @uat_fld_chk_num(i32 noundef range(i32 10, 17) %0, ptr noundef %1, i32 noundef %2, ptr noundef writeonly captures(none) %3) unnamed_addr #0 {
  %5 = alloca ptr, align 8
  %6 = alloca i32, align 4
  %.not = icmp eq i32 %2, 0
  br i1 %.not, label %20, label %7

7:                                                ; preds = %4
  %8 = zext i32 %2 to i64
  %9 = tail call noalias ptr @g_strndup(ptr noundef %1, i64 noundef %8)
  call void @llvm.lifetime.start.p0(i64 8, ptr nonnull %5) #17
  call void @llvm.lifetime.start.p0(i64 4, ptr nonnull %6) #17
  %10 = call zeroext i1 @ws_basestrtou32(ptr noundef %9, ptr noundef nonnull %5, ptr noundef nonnull %6, i32 noundef %0)
  br i1 %10, label %11, label %15

11:                                               ; preds = %7
  %12 = load ptr, ptr %5, align 8
  %13 = load i8, ptr %12, align 1
  switch i8 %13, label %.thread.i [
    i8 0, label %uat_fld_chk_num_check_result.exit
    i8 32, label %uat_fld_chk_num_check_result.exit
  ]

.thread.i:                                        ; preds = %11
  %14 = tail call ptr @__errno_location() #19
  store i32 22, ptr %14, align 4
  br label %.thread13.sink.split.i

15:                                               ; preds = %7
  %.pre.i = tail call ptr @__errno_location() #19
  %.pr.i = load i32, ptr %.pre.i, align 4
  switch i32 %.pr.i, label %17 [
    i32 22, label %.thread13.sink.split.i
    i32 34, label %16
  ]

16:                                               ; preds = %15
  br label %.thread13.sink.split.i

17:                                               ; preds = %15
  %18 = call ptr @g_strerror(i32 noundef %.pr.i) #19
  br label %.thread13.sink.split.i

.thread13.sink.split.i:                           ; preds = %17, %16, %15, %.thread.i
  %.str.35.sink.i = phi ptr [ @.str.36, %16 ], [ %18, %17 ], [ @.str.35, %.thread.i ], [ @.str.35, %15 ]
  %19 = call noalias ptr @g_strdup(ptr noundef %.str.35.sink.i)
  store ptr %19, ptr %3, align 8
  br label %uat_fld_chk_num_check_result.exit

uat_fld_chk_num_check_result.exit:                ; preds = %11, %11, %.thread13.sink.split.i
  %.0.shrunk11.i = phi i1 [ true, %11 ], [ true, %11 ], [ false, %.thread13.sink.split.i ]
  call void @g_free(ptr noundef %9)
  call void @llvm.lifetime.end.p0(i64 4, ptr nonnull %6) #17
  call void @llvm.lifetime.end.p0(i64 8, ptr nonnull %5) #17
  br label %21

20:                                               ; preds = %4
  store ptr null, ptr %3, align 8
  br label %21

21:                                               ; preds = %20, %uat_fld_chk_num_check_result.exit
  %.0 = phi i1 [ %.0.shrunk11.i, %uat_fld_chk_num_check_result.exit ], [ true, %20 ]
  ret i1 %.0
}